; Function Attrs: nounwind sspstrong uwtable
define hidden i64 @rb_class_inherited(i64 noundef %0, i64 noundef %1) local_unnamed_addr #0 {
  %3 = load i64, ptr @rb_cObject, align 8
  %.pr.i = load i64, ptr @rb_class_inherited.rbimpl_id, align 8, !tbaa !29
  %.not4.i = icmp eq i64 %.pr.i, 0
  br i1 %.not4.i, label %.lr.ph.i, label %rbimpl_intern_const.exit

.lr.ph.i:                                         ; preds = %2, %.lr.ph.i
  %4 = tail call i64 @rb_intern2(ptr noundef nonnull @.str.11, i64 noundef 9) #19
  store i64 %4, ptr @rb_class_inherited.rbimpl_id, align 8, !tbaa !29
  %.not.i = icmp eq i64 %4, 0
  br i1 %.not.i, label %.lr.ph.i, label %rbimpl_intern_const.exit, !llvm.loop !53

rbimpl_intern_const.exit:                         ; preds = %.lr.ph.i, %2
  %.lcssa.i = phi i64 [ %.pr.i, %2 ], [ %4, %.lr.ph.i ]
  %.not = icmp eq i64 %0, 0
  %spec.select = select i1 %.not, i64 %3, i64 %0
  %5 = tail call i64 (i64, i64, i32, ...) @rb_funcall(i64 noundef %spec.select, i64 noundef %.lcssa.i, i32 noundef 1, i64 noundef %1) #19
  ret i64 %5
}